target datalayout = "e-m:e-p270:32:32-p271:32:32-p272:64:64-i64:64-i128:128-f80:128-n8:16:32:64-S128"
target triple = "x86_64-pc-linux-gnu"

%"struct.ozz::geometry::SkinningJob" = type { i32, i32, %"struct.ozz::span", %"struct.ozz::span", %"struct.ozz::span.0", i64, %"struct.ozz::span.1", i64, %"struct.ozz::span.1", i64, %"struct.ozz::span.1", i64, %"struct.ozz::span.1", i64, %"struct.ozz::span.2", i64, %"struct.ozz::span.2", i64, %"struct.ozz::span.2", i64 }
%"struct.ozz::span" = type { ptr, i64 }
%"struct.ozz::span.0" = type { ptr, i64 }
%"struct.ozz::span.1" = type { ptr, i64 }
%"struct.ozz::span.2" = type { ptr, i64 }

; Function Attrs: mustprogress nounwind uwtable
define linkonce_odr dso_local noundef zeroext i1 @_ZNK3ozz4spanIKfE5emptyEv(ptr noundef nonnull align 8 dereferenceable(16) %0) #1 comdat align 2 {
  %2 = alloca ptr, align 8
  store ptr %0, ptr %2, align 8, !tbaa !37
  %3 = load ptr, ptr %2, align 8
  %4 = getelementptr inbounds nuw %"struct.ozz::span.1", ptr %3, i32 0, i32 1
  %5 = load i64, ptr %4, align 8, !tbaa !40
  %6 = icmp eq i64 %5, 0
  ret i1 %6
}

; Function Attrs: mustprogress nounwind uwtable
define linkonce_odr dso_local noundef i64 @_ZNK3ozz4spanIfE10size_bytesEv(ptr noundef nonnull align 8 dereferenceable(16) %0) #1 comdat align 2 {
  %2 = alloca ptr, align 8
  store ptr %0, ptr %2, align 8, !tbaa !41
  %3 = load ptr, ptr %2, align 8
  %4 = getelementptr inbounds nuw %"struct.ozz::span.2", ptr %3, i32 0, i32 1
  %5 = load i64, ptr %4, align 8, !tbaa !44
  %6 = mul i64 %5, 4
  ret i64 %6
}

; Function Attrs: mustprogress nounwind uwtable
define linkonce_odr dso_local noundef zeroext i1 @_ZNK3ozz4spanIfE5emptyEv(ptr noundef nonnull align 8 dereferenceable(16) %0) #1 comdat align 2 {
  %2 = alloca ptr, align 8
  store ptr %0, ptr %2, align 8, !tbaa !41
  %3 = load ptr, ptr %2, align 8
  %4 = getelementptr inbounds nuw %"struct.ozz::span.2", ptr %3, i32 0, i32 1
  %5 = load i64, ptr %4, align 8, !tbaa !44
  %6 = icmp eq i64 %5, 0
  ret i1 %6
}

; Function Attrs: mustprogress nounwind uwtable
define linkonce_odr dso_local noundef i64 @_ZNK3ozz4spanIKfE10size_bytesEv(ptr noundef nonnull align 8 dereferenceable(16) %0) #1 comdat align 2 {
  %2 = alloca ptr, align 8
  store ptr %0, ptr %2, align 8, !tbaa !37
  %3 = load ptr, ptr %2, align 8
  %4 = getelementptr inbounds nuw %"struct.ozz::span.1", ptr %3, i32 0, i32 1
  %5 = load i64, ptr %4, align 8, !tbaa !40
  %6 = mul i64 %5, 4
  ret i64 %6
}

; Function Attrs: mustprogress nounwind uwtable
define linkonce_odr dso_local noundef i64 @_ZNK3ozz4spanIKtE10size_bytesEv(ptr noundef nonnull align 8 dereferenceable(16) %0) #1 comdat align 2 {
  %2 = alloca ptr, align 8
  store ptr %0, ptr %2, align 8, !tbaa !33
  %3 = load ptr, ptr %2, align 8
  %4 = getelementptr inbounds nuw %"struct.ozz::span.0", ptr %3, i32 0, i32 1
  %5 = load i64, ptr %4, align 8, !tbaa !36
  %6 = mul i64 %5, 2
  ret i64 %6
}

; Function Attrs: mustprogress nounwind uwtable
define linkonce_odr dso_local noundef zeroext i1 @_ZNK3ozz4spanIKNS_4math8Float4x4EE5emptyEv(ptr noundef nonnull align 8 dereferenceable(16) %0) #1 comdat align 2 {
  %2 = alloca ptr, align 8
  store ptr %0, ptr %2, align 8, !tbaa !29
  %3 = load ptr, ptr %2, align 8
  %4 = getelementptr inbounds nuw %"struct.ozz::span", ptr %3, i32 0, i32 1
  %5 = load i64, ptr %4, align 8, !tbaa !32
  %6 = icmp eq i64 %5, 0
  ret i1 %6
}

; Function Attrs: mustprogress uwtable
define dso_local noundef zeroext i1 @_ZNK3ozz8geometry11SkinningJob8ValidateEv(ptr noundef nonnull align 8 dereferenceable(232) %0) #0 align 2 {
  %2 = alloca ptr, align 8
  %3 = alloca i8, align 1
  %4 = alloca i32, align 4
  %5 = alloca i32, align 4
  store ptr %0, ptr %2, align 8, !tbaa !4
  %6 = load ptr, ptr %2, align 8
  call void @llvm.lifetime.start.p0(i64 1, ptr %3) #8
  store i8 1, ptr %3, align 1, !tbaa !45
  %7 = getelementptr inbounds nuw %"struct.ozz::geometry::SkinningJob", ptr %6, i32 0, i32 1
  %8 = load i32, ptr %7, align 4, !tbaa !20
  %9 = icmp sgt i32 %8, 0
  %10 = zext i1 %9 to i32
  %11 = load i8, ptr %3, align 1, !tbaa !45, !range !47, !noundef !48
  %12 = trunc i8 %11 to i1
  %13 = zext i1 %12 to i32
  %14 = and i32 %13, %10
  %15 = icmp ne i32 %14, 0
  %16 = zext i1 %15 to i8
  store i8 %16, ptr %3, align 1, !tbaa !45
  %17 = getelementptr inbounds nuw %"struct.ozz::geometry::SkinningJob", ptr %6, i32 0, i32 2
  %18 = call noundef zeroext i1 @_ZNK3ozz4spanIKNS_4math8Float4x4EE5emptyEv(ptr noundef nonnull align 8 dereferenceable(16) %17)
  %19 = xor i1 %18, true
  %20 = zext i1 %19 to i32
  %21 = load i8, ptr %3, align 1, !tbaa !45, !range !47, !noundef !48
  %22 = trunc i8 %21 to i1
  %23 = zext i1 %22 to i32
  %24 = and i32 %23, %20
  %25 = icmp ne i32 %24, 0
  %26 = zext i1 %25 to i8
  store i8 %26, ptr %3, align 1, !tbaa !45
  call void @llvm.lifetime.start.p0(i64 4, ptr %4) #8
  %27 = getelementptr inbounds nuw %"struct.ozz::geometry::SkinningJob", ptr %6, i32 0, i32 0
  %28 = load i32, ptr %27, align 8, !tbaa !9
  %29 = icmp sgt i32 %28, 0
  br i1 %29, label %30, label %34

30:                                               ; preds = %1
  %31 = getelementptr inbounds nuw %"struct.ozz::geometry::SkinningJob", ptr %6, i32 0, i32 0
  %32 = load i32, ptr %31, align 8, !tbaa !9
  %33 = sub nsw i32 %32, 1
  br label %35

34:                                               ; preds = %1
  br label %35

35:                                               ; preds = %34, %30
  %36 = phi i32 [ %33, %30 ], [ 0, %34 ]
  store i32 %36, ptr %4, align 4, !tbaa !49
  call void @llvm.lifetime.start.p0(i64 4, ptr %5) #8
  %37 = getelementptr inbounds nuw %"struct.ozz::geometry::SkinningJob", ptr %6, i32 0, i32 0
  %38 = load i32, ptr %37, align 8, !tbaa !9
  %39 = icmp sgt i32 %38, 0
  %40 = zext i1 %39 to i32
  store i32 %40, ptr %5, align 4, !tbaa !49
  %41 = getelementptr inbounds nuw %"struct.ozz::geometry::SkinningJob", ptr %6, i32 0, i32 4
  %42 = call noundef i64 @_ZNK3ozz4spanIKtE10size_bytesEv(ptr noundef nonnull align 8 dereferenceable(16) %41)
  %43 = getelementptr inbounds nuw %"struct.ozz::geometry::SkinningJob", ptr %6, i32 0, i32 5
  %44 = load i64, ptr %43, align 8, !tbaa !21
  %45 = load i32, ptr %4, align 4, !tbaa !49
  %46 = sext i32 %45 to i64
  %47 = mul i64 %44, %46
  %48 = getelementptr inbounds nuw %"struct.ozz::geometry::SkinningJob", ptr %6, i32 0, i32 1
  %49 = load i32, ptr %48, align 4, !tbaa !20
  %50 = sext i32 %49 to i64
  %51 = mul i64 2, %50
  %52 = load i32, ptr %5, align 4, !tbaa !49
  %53 = sext i32 %52 to i64
  %54 = mul i64 %51, %53
  %55 = add i64 %47, %54
  %56 = icmp uge i64 %42, %55
  %57 = zext i1 %56 to i32
  %58 = load i8, ptr %3, align 1, !tbaa !45, !range !47, !noundef !48
  %59 = trunc i8 %58 to i1
  %60 = zext i1 %59 to i32
  %61 = and i32 %60, %57
  %62 = icmp ne i32 %61, 0
  %63 = zext i1 %62 to i8
  store i8 %63, ptr %3, align 1, !tbaa !45
  %64 = getelementptr inbounds nuw %"struct.ozz::geometry::SkinningJob", ptr %6, i32 0, i32 1
  %65 = load i32, ptr %64, align 4, !tbaa !20
  %66 = icmp ne i32 %65, 1
  br i1 %66, label %67, label %92

67:                                               ; preds = %35
  %68 = getelementptr inbounds nuw %"struct.ozz::geometry::SkinningJob", ptr %6, i32 0, i32 6
  %69 = call noundef i64 @_ZNK3ozz4spanIKfE10size_bytesEv(ptr noundef nonnull align 8 dereferenceable(16) %68)
  %70 = getelementptr inbounds nuw %"struct.ozz::geometry::SkinningJob", ptr %6, i32 0, i32 7
  %71 = load i64, ptr %70, align 8, !tbaa !22
  %72 = load i32, ptr %4, align 4, !tbaa !49
  %73 = sext i32 %72 to i64
  %74 = mul i64 %71, %73
  %75 = getelementptr inbounds nuw %"struct.ozz::geometry::SkinningJob", ptr %6, i32 0, i32 1
  %76 = load i32, ptr %75, align 4, !tbaa !20
  %77 = sub nsw i32 %76, 1
  %78 = sext i32 %77 to i64
  %79 = mul i64 4, %78
  %80 = load i32, ptr %5, align 4, !tbaa !49
  %81 = sext i32 %80 to i64
  %82 = mul i64 %79, %81
  %83 = add i64 %74, %82
  %84 = icmp uge i64 %69, %83
  %85 = zext i1 %84 to i32
  %86 = load i8, ptr %3, align 1, !tbaa !45, !range !47, !noundef !48
  %87 = trunc i8 %86 to i1
  %88 = zext i1 %87 to i32
  %89 = and i32 %88, %85
  %90 = icmp ne i32 %89, 0
  %91 = zext i1 %90 to i8
  store i8 %91, ptr %3, align 1, !tbaa !45
  br label %92

92:                                               ; preds = %67, %35
  %93 = getelementptr inbounds nuw %"struct.ozz::geometry::SkinningJob", ptr %6, i32 0, i32 8
  %94 = call noundef i64 @_ZNK3ozz4spanIKfE10size_bytesEv(ptr noundef nonnull align 8 dereferenceable(16) %93)
  %95 = getelementptr inbounds nuw %"struct.ozz::geometry::SkinningJob", ptr %6, i32 0, i32 9
  %96 = load i64, ptr %95, align 8, !tbaa !23
  %97 = load i32, ptr %4, align 4, !tbaa !49
  %98 = sext i32 %97 to i64
  %99 = mul i64 %96, %98
  %100 = load i32, ptr %5, align 4, !tbaa !49
  %101 = sext i32 %100 to i64
  %102 = mul i64 12, %101
  %103 = add i64 %99, %102
  %104 = icmp uge i64 %94, %103
  %105 = zext i1 %104 to i32
  %106 = load i8, ptr %3, align 1, !tbaa !45, !range !47, !noundef !48
  %107 = trunc i8 %106 to i1
  %108 = zext i1 %107 to i32
  %109 = and i32 %108, %105
  %110 = icmp ne i32 %109, 0
  %111 = zext i1 %110 to i8
  store i8 %111, ptr %3, align 1, !tbaa !45
  %112 = getelementptr inbounds nuw %"struct.ozz::geometry::SkinningJob", ptr %6, i32 0, i32 14
  %113 = call noundef zeroext i1 @_ZNK3ozz4spanIfE5emptyEv(ptr noundef nonnull align 8 dereferenceable(16) %112)
  %114 = xor i1 %113, true
  %115 = zext i1 %114 to i32
  %116 = load i8, ptr %3, align 1, !tbaa !45, !range !47, !noundef !48
  %117 = trunc i8 %116 to i1
  %118 = zext i1 %117 to i32
  %119 = and i32 %118, %115
  %120 = icmp ne i32 %119, 0
  %121 = zext i1 %120 to i8
  store i8 %121, ptr %3, align 1, !tbaa !45
  %122 = getelementptr inbounds nuw %"struct.ozz::geometry::SkinningJob", ptr %6, i32 0, i32 14
  %123 = call noundef i64 @_ZNK3ozz4spanIfE10size_bytesEv(ptr noundef nonnull align 8 dereferenceable(16) %122)
  %124 = getelementptr inbounds nuw %"struct.ozz::geometry::SkinningJob", ptr %6, i32 0, i32 15
  %125 = load i64, ptr %124, align 8, !tbaa !26
  %126 = load i32, ptr %4, align 4, !tbaa !49
  %127 = sext i32 %126 to i64
  %128 = mul i64 %125, %127
  %129 = load i32, ptr %5, align 4, !tbaa !49
  %130 = sext i32 %129 to i64
  %131 = mul i64 12, %130
  %132 = add i64 %128, %131
  %133 = icmp uge i64 %123, %132
  %134 = zext i1 %133 to i32
  %135 = load i8, ptr %3, align 1, !tbaa !45, !range !47, !noundef !48
  %136 = trunc i8 %135 to i1
  %137 = zext i1 %136 to i32
  %138 = and i32 %137, %134
  %139 = icmp ne i32 %138, 0
  %140 = zext i1 %139 to i8
  store i8 %140, ptr %3, align 1, !tbaa !45
  %141 = getelementptr inbounds nuw %"struct.ozz::geometry::SkinningJob", ptr %6, i32 0, i32 10
  %142 = call noundef zeroext i1 @_ZNK3ozz4spanIKfE5emptyEv(ptr noundef nonnull align 8 dereferenceable(16) %141)
  br i1 %142, label %244, label %143

143:                                              ; preds = %92
  %144 = getelementptr inbounds nuw %"struct.ozz::geometry::SkinningJob", ptr %6, i32 0, i32 10
  %145 = call noundef i64 @_ZNK3ozz4spanIKfE10size_bytesEv(ptr noundef nonnull align 8 dereferenceable(16) %144)
  %146 = getelementptr inbounds nuw %"struct.ozz::geometry::SkinningJob", ptr %6, i32 0, i32 11
  %147 = load i64, ptr %146, align 8, !tbaa !24
  %148 = load i32, ptr %4, align 4, !tbaa !49
  %149 = sext i32 %148 to i64
  %150 = mul i64 %147, %149
  %151 = load i32, ptr %5, align 4, !tbaa !49
  %152 = sext i32 %151 to i64
  %153 = mul i64 12, %152
  %154 = add i64 %150, %153
  %155 = icmp uge i64 %145, %154
  %156 = zext i1 %155 to i32
  %157 = load i8, ptr %3, align 1, !tbaa !45, !range !47, !noundef !48
  %158 = trunc i8 %157 to i1
  %159 = zext i1 %158 to i32
  %160 = and i32 %159, %156
  %161 = icmp ne i32 %160, 0
  %162 = zext i1 %161 to i8
  store i8 %162, ptr %3, align 1, !tbaa !45
  %163 = getelementptr inbounds nuw %"struct.ozz::geometry::SkinningJob", ptr %6, i32 0, i32 16
  %164 = call noundef zeroext i1 @_ZNK3ozz4spanIfE5emptyEv(ptr noundef nonnull align 8 dereferenceable(16) %163)
  %165 = xor i1 %164, true
  %166 = zext i1 %165 to i32
  %167 = load i8, ptr %3, align 1, !tbaa !45, !range !47, !noundef !48
  %168 = trunc i8 %167 to i1
  %169 = zext i1 %168 to i32
  %170 = and i32 %169, %166
  %171 = icmp ne i32 %170, 0
  %172 = zext i1 %171 to i8
  store i8 %172, ptr %3, align 1, !tbaa !45
  %173 = getelementptr inbounds nuw %"struct.ozz::geometry::SkinningJob", ptr %6, i32 0, i32 16
  %174 = call noundef i64 @_ZNK3ozz4spanIfE10size_bytesEv(ptr noundef nonnull align 8 dereferenceable(16) %173)
  %175 = getelementptr inbounds nuw %"struct.ozz::geometry::SkinningJob", ptr %6, i32 0, i32 17
  %176 = load i64, ptr %175, align 8, !tbaa !27
  %177 = load i32, ptr %4, align 4, !tbaa !49
  %178 = sext i32 %177 to i64
  %179 = mul i64 %176, %178
  %180 = load i32, ptr %5, align 4, !tbaa !49
  %181 = sext i32 %180 to i64
  %182 = mul i64 12, %181
  %183 = add i64 %179, %182
  %184 = icmp uge i64 %174, %183
  %185 = zext i1 %184 to i32
  %186 = load i8, ptr %3, align 1, !tbaa !45, !range !47, !noundef !48
  %187 = trunc i8 %186 to i1
  %188 = zext i1 %187 to i32
  %189 = and i32 %188, %185
  %190 = icmp ne i32 %189, 0
  %191 = zext i1 %190 to i8
  store i8 %191, ptr %3, align 1, !tbaa !45
  %192 = getelementptr inbounds nuw %"struct.ozz::geometry::SkinningJob", ptr %6, i32 0, i32 12
  %193 = call noundef zeroext i1 @_ZNK3ozz4spanIKfE5emptyEv(ptr noundef nonnull align 8 dereferenceable(16) %192)
  br i1 %193, label %243, label %194

194:                                              ; preds = %143
  %195 = getelementptr inbounds nuw %"struct.ozz::geometry::SkinningJob", ptr %6, i32 0, i32 12
  %196 = call noundef i64 @_ZNK3ozz4spanIKfE10size_bytesEv(ptr noundef nonnull align 8 dereferenceable(16) %195)
  %197 = getelementptr inbounds nuw %"struct.ozz::geometry::SkinningJob", ptr %6, i32 0, i32 13
  %198 = load i64, ptr %197, align 8, !tbaa !25
  %199 = load i32, ptr %4, align 4, !tbaa !49
  %200 = sext i32 %199 to i64
  %201 = mul i64 %198, %200
  %202 = load i32, ptr %5, align 4, !tbaa !49
  %203 = sext i32 %202 to i64
  %204 = mul i64 12, %203
  %205 = add i64 %201, %204
  %206 = icmp uge i64 %196, %205
  %207 = zext i1 %206 to i32
  %208 = load i8, ptr %3, align 1, !tbaa !45, !range !47, !noundef !48
  %209 = trunc i8 %208 to i1
  %210 = zext i1 %209 to i32
  %211 = and i32 %210, %207
  %212 = icmp ne i32 %211, 0
  %213 = zext i1 %212 to i8
  store i8 %213, ptr %3, align 1, !tbaa !45
  %214 = getelementptr inbounds nuw %"struct.ozz::geometry::SkinningJob", ptr %6, i32 0, i32 18
  %215 = call noundef zeroext i1 @_ZNK3ozz4spanIfE5emptyEv(ptr noundef nonnull align 8 dereferenceable(16) %214)
  %216 = xor i1 %215, true
  %217 = zext i1 %216 to i32
  %218 = load i8, ptr %3, align 1, !tbaa !45, !range !47, !noundef !48
  %219 = trunc i8 %218 to i1
  %220 = zext i1 %219 to i32
  %221 = and i32 %220, %217
  %222 = icmp ne i32 %221, 0
  %223 = zext i1 %222 to i8
  store i8 %223, ptr %3, align 1, !tbaa !45
  %224 = getelementptr inbounds nuw %"struct.ozz::geometry::SkinningJob", ptr %6, i32 0, i32 18
  %225 = call noundef i64 @_ZNK3ozz4spanIfE10size_bytesEv(ptr noundef nonnull align 8 dereferenceable(16) %224)
  %226 = getelementptr inbounds nuw %"struct.ozz::geometry::SkinningJob", ptr %6, i32 0, i32 19
  %227 = load i64, ptr %226, align 8, !tbaa !28
  %228 = load i32, ptr %4, align 4, !tbaa !49
  %229 = sext i32 %228 to i64
  %230 = mul i64 %227, %229
  %231 = load i32, ptr %5, align 4, !tbaa !49
  %232 = sext i32 %231 to i64
  %233 = mul i64 12, %232
  %234 = add i64 %230, %233
  %235 = icmp uge i64 %225, %234
  %236 = zext i1 %235 to i32
  %237 = load i8, ptr %3, align 1, !tbaa !45, !range !47, !noundef !48
  %238 = trunc i8 %237 to i1
  %239 = zext i1 %238 to i32
  %240 = and i32 %239, %236
  %241 = icmp ne i32 %240, 0
  %242 = zext i1 %241 to i8
  store i8 %242, ptr %3, align 1, !tbaa !45
  br label %243

243:                                              ; preds = %194, %143
  br label %254

244:                                              ; preds = %92
  %245 = getelementptr inbounds nuw %"struct.ozz::geometry::SkinningJob", ptr %6, i32 0, i32 12
  %246 = call noundef zeroext i1 @_ZNK3ozz4spanIKfE5emptyEv(ptr noundef nonnull align 8 dereferenceable(16) %245)
  %247 = zext i1 %246 to i32
  %248 = load i8, ptr %3, align 1, !tbaa !45, !range !47, !noundef !48
  %249 = trunc i8 %248 to i1
  %250 = zext i1 %249 to i32
  %251 = and i32 %250, %247
  %252 = icmp ne i32 %251, 0
  %253 = zext i1 %252 to i8
  store i8 %253, ptr %3, align 1, !tbaa !45
  br label %254

254:                                              ; preds = %244, %243
  %255 = load i8, ptr %3, align 1, !tbaa !45, !range !47, !noundef !48
  %256 = trunc i8 %255 to i1
  call void @llvm.lifetime.end.p0(i64 4, ptr %5) #8
  call void @llvm.lifetime.end.p0(i64 4, ptr %4) #8
  call void @llvm.lifetime.end.p0(i64 1, ptr %3) #8
  ret i1 %256
}