; Function Attrs: mustprogress nofree norecurse nosync nounwind willreturn memory(argmem: read) uwtable
define dso_local noundef zeroext i1 @_ZNK3ozz8geometry11SkinningJob8ValidateEv(ptr noundef nonnull readonly align 8 captures(none) dereferenceable(232) %0) local_unnamed_addr #1 align 2 {
  %2 = getelementptr inbounds nuw i8, ptr %0, i64 4
  %3 = load i32, ptr %2, align 4, !tbaa !4
  %4 = icmp sgt i32 %3, 0
  %5 = getelementptr inbounds nuw i8, ptr %0, i64 16
  %6 = load i64, ptr %5, align 8, !tbaa !18
  %7 = icmp ne i64 %6, 0
  %8 = and i1 %4, %7
  %9 = load i32, ptr %0, align 8, !tbaa !19
  %10 = icmp sgt i32 %9, 0
  %11 = tail call i32 @llvm.smax.i32(i32 %9, i32 1)
  %narrow = add nsw i32 %11, -1
  %12 = zext nneg i32 %narrow to i64
  %13 = getelementptr inbounds nuw i8, ptr %0, i64 48
  %14 = load i64, ptr %13, align 8, !tbaa !20
  %15 = shl i64 %14, 1
  %16 = getelementptr inbounds nuw i8, ptr %0, i64 56
  %17 = load i64, ptr %16, align 8, !tbaa !21
  %18 = mul i64 %17, %12
  %19 = sext i32 %3 to i64
  %20 = shl nsw i64 %19, 1
  %21 = select i1 %10, i64 %20, i64 0
  %22 = add i64 %18, %21
  %23 = icmp uge i64 %15, %22
  %24 = and i1 %8, %23
  %.not = icmp eq i32 %3, 1
  br i1 %.not, label %39, label %25

25:                                               ; preds = %1
  %26 = getelementptr inbounds nuw i8, ptr %0, i64 72
  %27 = load i64, ptr %26, align 8, !tbaa !22
  %28 = shl i64 %27, 2
  %29 = getelementptr inbounds nuw i8, ptr %0, i64 80
  %30 = load i64, ptr %29, align 8, !tbaa !23
  %31 = mul i64 %30, %12
  %32 = add nsw i32 %3, -1
  %33 = sext i32 %32 to i64
  %34 = shl nsw i64 %33, 2
  %35 = select i1 %10, i64 %34, i64 0
  %36 = add i64 %31, %35
  %37 = icmp uge i64 %28, %36
  %38 = and i1 %24, %37
  br label %39

39:                                               ; preds = %25, %1
  %.0.in = phi i1 [ %38, %25 ], [ %24, %1 ]
  %40 = getelementptr inbounds nuw i8, ptr %0, i64 96
  %41 = load i64, ptr %40, align 8, !tbaa !22
  %42 = shl i64 %41, 2
  %43 = getelementptr inbounds nuw i8, ptr %0, i64 104
  %44 = load i64, ptr %43, align 8, !tbaa !24
  %45 = mul i64 %44, %12
  %46 = select i1 %10, i64 12, i64 0
  %47 = add i64 %45, %46
  %48 = icmp uge i64 %42, %47
  %49 = and i1 %.0.in, %48
  %50 = getelementptr inbounds nuw i8, ptr %0, i64 168
  %51 = load i64, ptr %50, align 8, !tbaa !25
  %52 = icmp ne i64 %51, 0
  %53 = and i1 %52, %49
  %54 = shl i64 %51, 2
  %55 = getelementptr inbounds nuw i8, ptr %0, i64 176
  %56 = load i64, ptr %55, align 8, !tbaa !26
  %57 = mul i64 %56, %12
  %58 = add i64 %57, %46
  %59 = icmp uge i64 %54, %58
  %60 = and i1 %53, %59
  %61 = getelementptr inbounds nuw i8, ptr %0, i64 120
  %62 = load i64, ptr %61, align 8, !tbaa !22
  %63 = icmp eq i64 %62, 0
  br i1 %63, label %105, label %64

64:                                               ; preds = %39
  %65 = shl i64 %62, 2
  %66 = getelementptr inbounds nuw i8, ptr %0, i64 128
  %67 = load i64, ptr %66, align 8, !tbaa !27
  %68 = mul i64 %67, %12
  %69 = add i64 %68, %46
  %70 = icmp uge i64 %65, %69
  %71 = getelementptr inbounds nuw i8, ptr %0, i64 192
  %72 = load i64, ptr %71, align 8, !tbaa !25
  %73 = icmp ne i64 %72, 0
  %74 = and i1 %73, %70
  %75 = shl i64 %72, 2
  %76 = getelementptr inbounds nuw i8, ptr %0, i64 200
  %77 = load i64, ptr %76, align 8, !tbaa !28
  %78 = mul i64 %77, %12
  %79 = add i64 %78, %46
  %80 = icmp uge i64 %75, %79
  %81 = and i1 %74, %80
  %82 = and i1 %60, %81
  %83 = getelementptr inbounds nuw i8, ptr %0, i64 144
  %84 = load i64, ptr %83, align 8, !tbaa !22
  %85 = icmp eq i64 %84, 0
  br i1 %85, label %110, label %86

86:                                               ; preds = %64
  %87 = shl i64 %84, 2
  %88 = getelementptr inbounds nuw i8, ptr %0, i64 152
  %89 = load i64, ptr %88, align 8, !tbaa !29
  %90 = mul i64 %89, %12
  %91 = add i64 %90, %46
  %92 = icmp uge i64 %87, %91
  %93 = getelementptr inbounds nuw i8, ptr %0, i64 216
  %94 = load i64, ptr %93, align 8, !tbaa !25
  %95 = icmp ne i64 %94, 0
  %96 = and i1 %95, %92
  %97 = shl i64 %94, 2
  %98 = getelementptr inbounds nuw i8, ptr %0, i64 224
  %99 = load i64, ptr %98, align 8, !tbaa !30
  %100 = mul i64 %99, %12
  %101 = add i64 %100, %46
  %102 = icmp uge i64 %97, %101
  %103 = and i1 %96, %102
  %104 = and i1 %82, %103
  br label %110

105:                                              ; preds = %39
  %106 = getelementptr inbounds nuw i8, ptr %0, i64 144
  %107 = load i64, ptr %106, align 8, !tbaa !22
  %108 = icmp eq i64 %107, 0
  %109 = and i1 %60, %108
  br label %110

110:                                              ; preds = %64, %86, %105
  %.1.in = phi i1 [ %109, %105 ], [ %82, %64 ], [ %104, %86 ]
  ret i1 %.1.in
}